Certificate:
    Data:
        Version: 3 (0x2)
        Serial Number:
            70:ba:5d:47:f7:2f:ba:50:99:17:4d:b7:80:17:8c:56:2d:c8:6b:8a
        Signature Algorithm: sha256WithRSAEncryption
        Issuer: C = AM, ST = Yerevam, L = Yerevan, O = 42, OU = 42, CN = localhost, emailAddress = a
        Validity
            Not Before: Jun 16 10:47:18 2024 GMT
            Not After : Jul 16 10:47:18 2024 GMT
        Subject: C = AM, ST = Yerevam, L = Yerevan, O = 42, OU = 42, CN = localhost, emailAddress = a
        Subject Public Key Info:
            Public Key Algorithm: rsaEncryption
                Public-Key: (2048 bit)
                Modulus:
                    00:ab:db:6b:32:d8:01:07:a2:4a:cc:e4:13:47:94:
                    b9:d4:ad:b1:9a:e3:6a:e1:75:1c:84:45:ca:0d:c0:
                    51:7b:13:d4:b0:6c:08:84:5d:f3:15:4f:e7:c1:04:
                    68:a9:72:c6:7f:bd:14:c9:22:5b:7a:e5:3a:93:00:
                    4b:26:7a:ac:c7:6f:a1:4e:a9:9d:f8:fe:15:46:b0:
                    3e:80:ae:8f:75:32:37:fc:a8:a9:f1:92:32:92:ba:
                    76:e1:f3:9b:6c:4f:bc:f1:7c:98:2b:a7:7d:8e:32:
                    5d:94:60:ce:88:18:7d:7d:07:71:fb:8c:b0:c9:e5:
                    73:ff:9b:ce:4c:69:dd:8f:bf:e6:3a:74:58:82:75:
                    2e:7e:c7:3d:43:6c:c4:5d:db:e5:cf:d7:22:be:6b:
                    da:0d:a5:fc:a7:b9:52:f8:6a:ca:6c:6b:fb:dd:7f:
                    8e:b0:5e:a7:8f:39:03:95:0c:7a:2e:5c:77:5f:7e:
                    8f:4e:be:32:23:66:d4:64:d1:e2:7e:b6:4c:f4:70:
                    6c:36:11:43:24:07:67:fd:97:cf:16:5f:05:15:ce:
                    35:43:7f:9d:4b:fd:12:1f:2e:66:56:f3:f0:3c:01:
                    4b:fe:ba:e3:a0:52:ab:aa:cd:62:04:4f:29:95:47:
                    8f:5a:15:f1:90:24:98:4e:d2:b6:b3:a6:5d:92:ac:
                    53:db
                Exponent: 65537 (0x10001)
        X509v3 extensions:
            X509v3 Subject Key Identifier: 
                5E:41:67:5C:6A:BA:27:77:02:12:5F:E6:96:7E:FC:41:39:45:19:D4
            X509v3 Authority Key Identifier: 
                5E:41:67:5C:6A:BA:27:77:02:12:5F:E6:96:7E:FC:41:39:45:19:D4
            X509v3 Basic Constraints: critical
                CA:TRUE
    Signature Algorithm: sha256WithRSAEncryption
    Signature Value:
        5c:cb:46:65:44:68:14:60:c6:4c:e5:17:92:08:a1:34:39:4e:
        71:d6:e9:ae:fa:0c:86:50:59:b8:37:d6:bc:18:7e:0a:64:da:
        46:5e:a5:a4:40:13:1d:7d:a3:89:68:82:c2:26:bc:2e:eb:b0:
        85:7d:87:75:ae:86:da:11:1d:5b:d1:10:4c:31:64:15:80:28:
        fe:fd:48:c1:d1:9f:4d:b9:af:ce:be:98:3a:48:20:a8:55:fa:
        60:f9:4d:c4:20:e8:bf:01:af:4d:3f:e4:8b:a4:f0:b7:be:76:
        5e:d9:59:4e:58:47:eb:d3:37:eb:c8:47:9c:de:c1:36:03:c5:
        3a:fc:32:5b:76:21:83:2c:00:6c:fa:7c:2d:80:c4:ad:3e:c3:
        58:5f:b9:b5:b1:72:1b:e6:c2:54:db:c8:39:49:d5:a7:78:c9:
        fe:0b:2e:38:18:f2:e4:ce:c3:a2:ab:20:46:4d:c7:92:d2:63:
        30:9a:4e:59:e8:98:80:aa:4b:b4:ec:72:ae:22:e1:48:53:a0:
        cd:91:50:5a:fe:f5:d6:b7:49:d2:d8:03:12:92:66:a3:5a:79:
        da:63:54:2a:53:76:73:a9:6e:db:bc:5b:3c:b5:2d:85:59:18:
        ea:da:75:ce:56:85:e1:0c:8a:34:47:dc:bd:fe:4f:40:3e:17:
        69:c7:4e:d4
-----BEGIN CERTIFICATE-----
MIIDwzCCAqugAwIBAgIUcLpdR/cvulCZF023gBeMVi3Ia4owDQYJKoZIhvcNAQEL
BQAwcTELMAkGA1UEBhMCQU0xEDAOBgNVBAgMB1llcmV2YW0xEDAOBgNVBAcMB1ll
cmV2YW4xCzAJBgNVBAoMAjQyMQswCQYDVQQLDAI0MjESMBAGA1UEAwwJbG9jYWxo
b3N0MRAwDgYJKoZIhvcNAQkBFgFhMB4XDTI0MDYxNjEwNDcxOFoXDTI0MDcxNjEw
NDcxOFowcTELMAkGA1UEBhMCQU0xEDAOBgNVBAgMB1llcmV2YW0xEDAOBgNVBAcM
B1llcmV2YW4xCzAJBgNVBAoMAjQyMQswCQYDVQQLDAI0MjESMBAGA1UEAwwJbG9j
YWxob3N0MRAwDgYJKoZIhvcNAQkBFgFhMIIBIjANBgkqhkiG9w0BAQEFAAOCAQ8A
MIIBCgKCAQEAq9trMtgBB6JKzOQTR5S51K2xmuNq4XUchEXKDcBRexPUsGwIhF3z
FU/nwQRoqXLGf70UySJbeuU6kwBLJnqsx2+hTqmd+P4VRrA+gK6PdTI3/Kip8ZIy
krp24fObbE+88XyYK6d9jjJdlGDOiBh9fQdx+4ywyeVz/5vOTGndj7/mOnRYgnUu
fsc9Q2zEXdvlz9civmvaDaX8p7lS+GrKbGv73X+OsF6njzkDlQx6Llx3X36PTr4y
I2bUZNHifrZM9HBsNhFDJAdn/ZfPFl8FFc41Q3+dS/0SHy5mVvPwPAFL/rrjoFKr
qs1iBE8plUePWhXxkCSYTtK2s6ZdkqxT2wIDAQABo1MwUTAdBgNVHQ4EFgQUXkFn
XGq6J3cCEl/mln78QTlFGdQwHwYDVR0jBBgwFoAUXkFnXGq6J3cCEl/mln78QTlF
GdQwDwYDVR0TAQH/BAUwAwEB/zANBgkqhkiG9w0BAQsFAAOCAQEAXMtGZURoFGDG
TOUXkgihNDlOcdbprvoMhlBZuDfWvBh+CmTaRl6lpEATHX2jiWiCwia8LuuwhX2H
da6G2hEdW9EQTDFkFYAo/v1IwdGfTbmvzr6YOkggqFX6YPlNxCDovwGvTT/ki6Tw
t752XtlZTlhH69M368hHnN7BNgPFOvwyW3YhgywAbPp8LYDErT7DWF+5tbFyG+bC
VNvIOUnVp3jJ/gsuOBjy5M7DoqsgRk3HktJjMJpOWeiYgKpLtOxyriLhSFOgzZFQ
Wv711rdJ0tgDEpJmo1p52mNUKlN2c6lu27xbPLUthVkY6tp1zlaF4QyKNEfcvf5P
QD4XacdO1A==
-----END CERTIFICATE-----
